target datalayout = "e-m:e-p270:32:32-p271:32:32-p272:64:64-i64:64-i128:128-f80:128-n8:16:32:64-S128"
target triple = "x86_64-pc-linux-gnu"

%struct.UpgradeTaskReport = type { ptr, [1024 x i8] }

@.str.12 = private unnamed_addr constant [84 x i8] c"SELECT name FROM pg_available_extensions WHERE installed_version != default_version\00", align 1
@.str.13 = private unnamed_addr constant [31 x i8] c"Checking for extension updates\00", align 1
@.str.14 = private unnamed_addr constant [22 x i8] c"update_extensions.sql\00", align 1
@.str.15 = private unnamed_addr constant [7 x i8] c"notice\00", align 1
@.str.16 = private unnamed_addr constant [191 x i8] c"\0AYour installation contains extensions that should be updated\0Awith the ALTER EXTENSION command.  The file\0A    %s\0Awhen executed by psql by the database superuser will update\0Athese extensions.\00", align 1

; Function Attrs: nounwind uwtable
define dso_local void @report_extension_updates(ptr noundef %0) #0 {
  %2 = alloca ptr, align 8
  %3 = alloca %struct.UpgradeTaskReport, align 8
  %4 = alloca ptr, align 8
  %5 = alloca ptr, align 8
  store ptr %0, ptr %2, align 8
  call void @llvm.lifetime.start.p0(i64 1032, ptr %3) #5
  call void @llvm.lifetime.start.p0(i64 8, ptr %4) #5
  %6 = call ptr @upgrade_task_create()
  store ptr %6, ptr %4, align 8
  call void @llvm.lifetime.start.p0(i64 8, ptr %5) #5
  store ptr @.str.12, ptr %5, align 8
  call void (ptr, ...) @prep_status(ptr noundef @.str.13)
  %7 = getelementptr inbounds nuw %struct.UpgradeTaskReport, ptr %3, i32 0, i32 0
  store ptr null, ptr %7, align 8
  %8 = getelementptr inbounds nuw %struct.UpgradeTaskReport, ptr %3, i32 0, i32 1
  %9 = getelementptr inbounds [1024 x i8], ptr %8, i64 0, i64 0
  %10 = call ptr @strcpy(ptr noundef %9, ptr noundef @.str.14) #5
  %11 = load ptr, ptr %4, align 8
  %12 = load ptr, ptr %5, align 8
  call void @upgrade_task_add_step(ptr noundef %11, ptr noundef %12, ptr noundef @process_extension_updates, i1 noundef zeroext true, ptr noundef %3)
  %13 = load ptr, ptr %4, align 8
  %14 = load ptr, ptr %2, align 8
  call void @upgrade_task_run(ptr noundef %13, ptr noundef %14)
  %15 = load ptr, ptr %4, align 8
  call void @upgrade_task_free(ptr noundef %15)
  %16 = getelementptr inbounds nuw %struct.UpgradeTaskReport, ptr %3, i32 0, i32 0
  %17 = load ptr, ptr %16, align 8
  %18 = icmp ne ptr %17, null
  br i1 %18, label %19, label %25

19:                                               ; preds = %1
  %20 = getelementptr inbounds nuw %struct.UpgradeTaskReport, ptr %3, i32 0, i32 0
  %21 = load ptr, ptr %20, align 8
  %22 = call i32 @fclose(ptr noundef %21)
  call void (i32, ptr, ...) @report_status(i32 noundef 3, ptr noundef @.str.15)
  %23 = getelementptr inbounds nuw %struct.UpgradeTaskReport, ptr %3, i32 0, i32 1
  %24 = getelementptr inbounds [1024 x i8], ptr %23, i64 0, i64 0
  call void (i32, ptr, ...) @pg_log(i32 noundef 3, ptr noundef @.str.16, ptr noundef %24)
  br label %26

25:                                               ; preds = %1
  call void @check_ok()
  br label %26

26:                                               ; preds = %25, %19
  call void @llvm.lifetime.end.p0(i64 8, ptr %5) #5
  call void @llvm.lifetime.end.p0(i64 8, ptr %4) #5
  call void @llvm.lifetime.end.p0(i64 1032, ptr %3) #5
  ret void
}