; Function Attrs: nounwind uwtable
define dso_local void @report_extension_updates(ptr noundef %0) local_unnamed_addr #1 {
  %2 = alloca %struct.UpgradeTaskReport, align 8
  call void @llvm.lifetime.start.p0(i64 1032, ptr nonnull %2) #7
  %3 = tail call ptr @upgrade_task_create() #7
  tail call void (ptr, ...) @prep_status(ptr noundef nonnull @.str.13) #7
  store ptr null, ptr %2, align 8
  %4 = getelementptr inbounds nuw i8, ptr %2, i64 8
  call void @llvm.memcpy.p0.p0.i64(ptr noundef nonnull align 8 dereferenceable(22) %4, ptr noundef nonnull align 1 dereferenceable(22) @.str.14, i64 22, i1 false) #7
  call void @upgrade_task_add_step(ptr noundef %3, ptr noundef nonnull @.str.12, ptr noundef nonnull @process_extension_updates, i1 noundef zeroext true, ptr noundef nonnull %2) #7
  call void @upgrade_task_run(ptr noundef %3, ptr noundef %0) #7
  call void @upgrade_task_free(ptr noundef %3) #7
  %5 = load ptr, ptr %2, align 8
  %.not = icmp eq ptr %5, null
  br i1 %.not, label %8, label %6

6:                                                ; preds = %1
  %7 = call i32 @fclose(ptr noundef nonnull %5)
  call void (i32, ptr, ...) @report_status(i32 noundef 3, ptr noundef nonnull @.str.15) #7
  call void (i32, ptr, ...) @pg_log(i32 noundef 3, ptr noundef nonnull @.str.16, ptr noundef nonnull %4) #7
  br label %9

8:                                                ; preds = %1
  call void @check_ok() #7
  br label %9

9:                                                ; preds = %8, %6
  call void @llvm.lifetime.end.p0(i64 1032, ptr nonnull %2) #7
  ret void
}